; Function Attrs: nounwind uwtable
define void @glfwSetWindowIcon(ptr noundef %0, i32 noundef %1, ptr noundef %2) local_unnamed_addr #0 {
  %4 = load i32, ptr @_glfw, align 8, !tbaa !138
  %.not = icmp eq i32 %4, 0
  br i1 %.not, label %5, label %6

5:                                                ; preds = %3
  tail call void (i32, ptr, ...) @_glfwInputError(i32 noundef 65537, ptr noundef null) #7
  br label %19

6:                                                ; preds = %3
  %7 = icmp slt i32 %1, 0
  br i1 %7, label %8, label %.preheader

.preheader:                                       ; preds = %6
  %.not13 = icmp eq i32 %1, 0
  br i1 %.not13, label %._crit_edge, label %.lr.ph.preheader

.lr.ph.preheader:                                 ; preds = %.preheader
  %wide.trip.count = zext nneg i32 %1 to i64
  br label %.lr.ph

8:                                                ; preds = %6
  tail call void (i32, ptr, ...) @_glfwInputError(i32 noundef 65540, ptr noundef nonnull @.str.3) #7
  br label %19

9:                                                ; preds = %13
  %indvars.iv.next = add nuw nsw i64 %indvars.iv, 1
  %exitcond.not = icmp eq i64 %indvars.iv.next, %wide.trip.count
  br i1 %exitcond.not, label %._crit_edge, label %.lr.ph

.lr.ph:                                           ; preds = %.lr.ph.preheader, %9
  %indvars.iv = phi i64 [ 0, %.lr.ph.preheader ], [ %indvars.iv.next, %9 ]
  %10 = getelementptr inbounds nuw %struct.GLFWimage, ptr %2, i64 %indvars.iv
  %11 = load i32, ptr %10, align 8, !tbaa !224
  %12 = icmp slt i32 %11, 1
  br i1 %12, label %17, label %13

13:                                               ; preds = %.lr.ph
  %14 = getelementptr inbounds nuw i8, ptr %10, i64 4
  %15 = load i32, ptr %14, align 4, !tbaa !226
  %16 = icmp slt i32 %15, 1
  br i1 %16, label %17, label %9

17:                                               ; preds = %13, %.lr.ph
  tail call void (i32, ptr, ...) @_glfwInputError(i32 noundef 65540, ptr noundef nonnull @.str.4) #7
  br label %19

._crit_edge:                                      ; preds = %9, %.preheader
  %18 = load ptr, ptr getelementptr inbounds nuw (i8, ptr @_glfw, i64 296), align 8, !tbaa !227
  tail call void %18(ptr noundef %0, i32 noundef %1, ptr noundef %2) #7
  br label %19

19:                                               ; preds = %._crit_edge, %17, %8, %5
  ret void
}